; Function Attrs: mustprogress uwtable
define i32 @_ZNK14ProtoTreeModel5flagsERK11QModelIndex(ptr noundef nonnull align 8 dereferenceable(24) %0, ptr noundef nonnull align 8 dereferenceable(24) %1) unnamed_addr #0 align 2 {
  %3 = tail call i32 @_ZNK18QAbstractItemModel5flagsERK11QModelIndex(ptr noundef nonnull align 8 dereferenceable(16) %0, ptr noundef nonnull align 8 dereferenceable(24) %1)
  %4 = load ptr, ptr %0, align 8
  %5 = getelementptr inbounds i8, ptr %4, i64 120
  %6 = load ptr, ptr %5, align 8
  %7 = tail call noundef i32 %6(ptr noundef nonnull align 8 dereferenceable(24) %0, ptr noundef nonnull align 8 dereferenceable(24) %1)
  %8 = icmp slt i32 %7, 1
  %9 = or i32 %3, 128
  %spec.select = select i1 %8, i32 %9, i32 %3
  ret i32 %spec.select
}